; Function Attrs: mustprogress nounwind uwtable
define hidden void @_ZN8ciMethod18dump_name_as_asciiEP12outputStreamP6Method(ptr noundef %0, ptr nocapture noundef readonly %1) local_unnamed_addr #0 align 2 {
  %3 = tail call align 8 ptr @llvm.threadlocal.address.p0(ptr align 8 @_ZN6Thread12_thr_currentE)
  %4 = load ptr, ptr %3, align 8
  %5 = getelementptr inbounds i8, ptr %4, i64 1808
  %6 = load ptr, ptr %5, align 8
  %7 = getelementptr inbounds i8, ptr %1, i64 8
  %8 = load ptr, ptr %7, align 8
  %9 = getelementptr inbounds i8, ptr %8, i64 8
  %10 = load ptr, ptr %9, align 8
  %11 = getelementptr inbounds i8, ptr %10, i64 24
  %12 = load ptr, ptr %11, align 8
  %13 = tail call noundef ptr @_ZNK5ciEnv11replay_nameEPK13InstanceKlass(ptr noundef nonnull align 8 dereferenceable(1265) %6, ptr noundef %12) #14
  %14 = load ptr, ptr %7, align 8
  %15 = getelementptr inbounds i8, ptr %14, i64 8
  %16 = load ptr, ptr %15, align 8
  %17 = getelementptr inbounds i8, ptr %14, i64 36
  %18 = load i16, ptr %17, align 4
  %19 = getelementptr inbounds i8, ptr %16, i64 72
  %20 = zext i16 %18 to i64
  %21 = getelementptr inbounds i64, ptr %19, i64 %20
  %22 = load ptr, ptr %21, align 8
  %23 = tail call noundef ptr @_ZNK6Symbol15as_quoted_asciiEv(ptr noundef nonnull align 4 dereferenceable(8) %22) #14
  %24 = load ptr, ptr %7, align 8
  %25 = getelementptr inbounds i8, ptr %24, i64 8
  %26 = load ptr, ptr %25, align 8
  %27 = getelementptr inbounds i8, ptr %24, i64 38
  %28 = load i16, ptr %27, align 2
  %29 = getelementptr inbounds i8, ptr %26, i64 72
  %30 = zext i16 %28 to i64
  %31 = getelementptr inbounds i64, ptr %29, i64 %30
  %32 = load ptr, ptr %31, align 8
  %33 = tail call noundef ptr @_ZNK6Symbol15as_quoted_asciiEv(ptr noundef nonnull align 4 dereferenceable(8) %32) #14
  tail call void (ptr, ptr, ...) @_ZN12outputStream5printEPKcz(ptr noundef nonnull align 8 dereferenceable(56) %0, ptr noundef nonnull @.str.5, ptr noundef %13, ptr noundef %23, ptr noundef %33) #14
  ret void
}